target datalayout = "e-m:e-p270:32:32-p271:32:32-p272:64:64-i64:64-i128:128-f80:128-n8:16:32:64-S128"
target triple = "x86_64-pc-linux-gnu"

%struct.darktable_t = type { %struct.dt_codepath_t, i32, i32, ptr, ptr, ptr, ptr, ptr, ptr, ptr, ptr, ptr, ptr, ptr, ptr, ptr, ptr, ptr, ptr, ptr, ptr, ptr, ptr, ptr, ptr, ptr, ptr, ptr, ptr, ptr, [64 x %struct.dt_pthread_mutex_t], %struct.dt_pthread_mutex_t, %struct.dt_pthread_mutex_t, %struct.dt_pthread_mutex_t, %struct.dt_pthread_mutex_t, %struct.dt_pthread_mutex_t, ptr, ptr, ptr, ptr, ptr, ptr, ptr, ptr, ptr, ptr, ptr, ptr, ptr, %struct.dt_lua_state_t, ptr, double, ptr, i32, [47 x i32], i32, i32, ptr, ptr, %struct.dt_sys_resources_t, %struct.dt_backthumb_t, %struct.dt_gimp_t }
%struct.dt_codepath_t = type { i8, [3 x i8] }
%struct.dt_pthread_mutex_t = type { %union.pthread_mutex_t }
%union.pthread_mutex_t = type { %struct.__pthread_mutex_s }
%struct.__pthread_mutex_s = type { i32, i32, i32, i32, i32, i16, i16, %struct.__pthread_internal_list }
%struct.__pthread_internal_list = type { ptr, ptr }
%struct.dt_lua_state_t = type { i32 }
%struct.dt_sys_resources_t = type { i64, i64, ptr, ptr, i32 }
%struct.dt_backthumb_t = type { double, double, i32, i32, i32, i32 }
%struct.dt_gimp_t = type { i32, ptr, ptr, i32, i32 }
%struct.dt_control_image_enumerator_t = type { ptr, i32, ptr, i32 }

@darktable = external global %struct.darktable_t, align 8
@.str.4 = private unnamed_addr constant [14 x i8] c"remove images\00", align 1
@.str.5 = private unnamed_addr constant [18 x i8] c"ask_before_remove\00", align 1
@.str.6 = private unnamed_addr constant [14 x i8] c"remove image?\00", align 1
@.str.7 = private unnamed_addr constant [15 x i8] c"remove images?\00", align 1
@.str.8 = private unnamed_addr constant [86 x i8] c"do you really want to remove %d image from darktable\0A(without deleting file on disk)?\00", align 1
@.str.9 = private unnamed_addr constant [88 x i8] c"do you really want to remove %d images from darktable\0A(without deleting files on disk)?\00", align 1

; Function Attrs: nounwind uwtable
define i32 @dt_control_remove_images() #0 {
  %1 = alloca i32, align 4
  %2 = alloca ptr, align 8
  %3 = alloca ptr, align 8
  %4 = alloca i32, align 4
  %5 = alloca i32, align 4
  call void @llvm.lifetime.start.p0(i64 8, ptr %2) #14
  %6 = call ptr @dt_control_generic_images_job_create(ptr noundef @dt_control_remove_images_job_run, ptr noundef @.str.4, i32 noundef 0, ptr noundef null, i32 noundef 2, i32 noundef 0)
  store ptr %6, ptr %2, align 8, !tbaa !51
  %7 = call i32 @dt_conf_get_bool(ptr noundef @.str.5)
  %8 = icmp ne i32 %7, 0
  br i1 %8, label %9, label %38

9:                                                ; preds = %0
  call void @llvm.lifetime.start.p0(i64 8, ptr %3) #14
  %10 = load ptr, ptr %2, align 8, !tbaa !51
  %11 = call ptr @dt_control_job_get_params(ptr noundef %10)
  store ptr %11, ptr %3, align 8, !tbaa !53
  call void @llvm.lifetime.start.p0(i64 4, ptr %4) #14
  %12 = load ptr, ptr %3, align 8, !tbaa !53
  %13 = getelementptr inbounds nuw %struct.dt_control_image_enumerator_t, ptr %12, i32 0, i32 0
  %14 = load ptr, ptr %13, align 8, !tbaa !57
  %15 = call i32 @g_list_length(ptr noundef %14)
  store i32 %15, ptr %4, align 4, !tbaa !50
  %16 = load i32, ptr %4, align 4, !tbaa !50
  %17 = icmp eq i32 %16, 0
  br i1 %17, label %18, label %20

18:                                               ; preds = %9
  %19 = load ptr, ptr %2, align 8, !tbaa !51
  call void @dt_control_job_dispose(ptr noundef %19)
  store i32 1, ptr %1, align 4
  store i32 1, ptr %5, align 4
  br label %35

20:                                               ; preds = %9
  %21 = call ptr @dcgettext(ptr noundef null, ptr noundef @.str.6, i32 noundef 5) #14
  %22 = call ptr @dcgettext(ptr noundef null, ptr noundef @.str.7, i32 noundef 5) #14
  %23 = load i32, ptr %4, align 4, !tbaa !50
  %24 = sext i32 %23 to i64
  %25 = call ptr @dcngettext(ptr noundef null, ptr noundef %21, ptr noundef %22, i64 noundef %24, i32 noundef 5) #14
  %26 = load i32, ptr %4, align 4, !tbaa !50
  %27 = sext i32 %26 to i64
  %28 = call ptr @dcngettext(ptr noundef null, ptr noundef @.str.8, ptr noundef @.str.9, i64 noundef %27, i32 noundef 5) #14
  %29 = load i32, ptr %4, align 4, !tbaa !50
  %30 = call i32 (ptr, ptr, ...) @dt_gui_show_yes_no_dialog(ptr noundef %25, ptr noundef %28, i32 noundef %29)
  %31 = icmp ne i32 %30, 0
  br i1 %31, label %34, label %32

32:                                               ; preds = %20
  %33 = load ptr, ptr %2, align 8, !tbaa !51
  call void @dt_control_job_dispose(ptr noundef %33)
  store i32 0, ptr %1, align 4
  store i32 1, ptr %5, align 4
  br label %35

34:                                               ; preds = %20
  store i32 0, ptr %5, align 4
  br label %35

35:                                               ; preds = %34, %32, %18
  call void @llvm.lifetime.end.p0(i64 4, ptr %4) #14
  call void @llvm.lifetime.end.p0(i64 8, ptr %3) #14
  %36 = load i32, ptr %5, align 4
  switch i32 %36, label %42 [
    i32 0, label %37
  ]

37:                                               ; preds = %35
  br label %38

38:                                               ; preds = %37, %0
  %39 = load ptr, ptr getelementptr inbounds nuw (%struct.darktable_t, ptr @darktable, i32 0, i32 12), align 8, !tbaa !10
  %40 = load ptr, ptr %2, align 8, !tbaa !51
  %41 = call i32 @dt_control_add_job(ptr noundef %39, i32 noundef 0, ptr noundef %40)
  store i32 1, ptr %1, align 4
  store i32 1, ptr %5, align 4
  br label %42

42:                                               ; preds = %38, %35
  call void @llvm.lifetime.end.p0(i64 8, ptr %2) #14
  %43 = load i32, ptr %1, align 4
  ret i32 %43
}