; Function Attrs: nounwind uwtable
define range(i32 0, 2) i32 @dt_control_remove_images() local_unnamed_addr #0 {
  %1 = tail call fastcc ptr @dt_control_generic_images_job_create(ptr noundef nonnull @dt_control_remove_images_job_run, ptr noundef nonnull @.str.4, i32 noundef 0, ptr noundef null, i32 noundef 2, i32 noundef 0)
  %2 = tail call i32 @dt_conf_get_bool(ptr noundef nonnull @.str.5) #17
  %.not = icmp eq i32 %2, 0
  br i1 %.not, label %17, label %3

3:                                                ; preds = %0
  %4 = tail call ptr @dt_control_job_get_params(ptr noundef %1) #17
  %5 = load ptr, ptr %4, align 8, !tbaa !50
  %6 = tail call i32 @g_list_length(ptr noundef %5) #17
  %7 = icmp eq i32 %6, 0
  br i1 %7, label %8, label %9

8:                                                ; preds = %3
  tail call void @dt_control_job_dispose(ptr noundef %1) #17
  br label %.thread

9:                                                ; preds = %3
  %10 = tail call ptr @dcgettext(ptr noundef null, ptr noundef nonnull @.str.6, i32 noundef 5) #17
  %11 = tail call ptr @dcgettext(ptr noundef null, ptr noundef nonnull @.str.7, i32 noundef 5) #17
  %12 = sext i32 %6 to i64
  %13 = tail call ptr @dcngettext(ptr noundef null, ptr noundef %10, ptr noundef %11, i64 noundef %12, i32 noundef 5) #17
  %14 = tail call ptr @dcngettext(ptr noundef null, ptr noundef nonnull @.str.8, ptr noundef nonnull @.str.9, i64 noundef %12, i32 noundef 5) #17
  %15 = tail call i32 (ptr, ptr, ...) @dt_gui_show_yes_no_dialog(ptr noundef %13, ptr noundef %14, i32 noundef %6) #17
  %.not12 = icmp eq i32 %15, 0
  br i1 %.not12, label %16, label %17

16:                                               ; preds = %9
  tail call void @dt_control_job_dispose(ptr noundef %1) #17
  br label %.thread

17:                                               ; preds = %9, %0
  %18 = load ptr, ptr getelementptr inbounds nuw (i8, ptr @darktable, i64 88), align 8, !tbaa !6
  %19 = tail call i32 @dt_control_add_job(ptr noundef %18, i32 noundef 0, ptr noundef %1) #17
  br label %.thread

.thread:                                          ; preds = %16, %8, %17
  %.1 = phi i32 [ 1, %17 ], [ 0, %16 ], [ 1, %8 ]
  ret i32 %.1
}